target datalayout = "e-m:e-p270:32:32-p271:32:32-p272:64:64-i64:64-i128:128-f80:128-n8:16:32:64-S128"
target triple = "x86_64-pc-linux-gnu"

%struct.slurm_conf_t = type { i64, ptr, i16, ptr, ptr, ptr, ptr, ptr, i16, ptr, ptr, ptr, ptr, ptr, ptr, ptr, i16, ptr, ptr, ptr, ptr, i16, ptr, ptr, ptr, i64, ptr, ptr, ptr, ptr, i16, ptr, ptr, i16, i32, ptr, i32, ptr, i32, i32, ptr, ptr, i64, i64, ptr, i16, i16, ptr, i32, i32, ptr, i32, ptr, i32, i16, i16, i16, ptr, i16, i16, ptr, ptr, i32, i16, i16, ptr, i32, i16, ptr, ptr, ptr, ptr, i16, ptr, ptr, ptr, ptr, i32, ptr, ptr, ptr, ptr, i16, i16, ptr, i32, i32, i32, i16, i16, ptr, ptr, i16, ptr, ptr, i32, i32, i32, i32, i32, i64, i32, i32, i16, ptr, ptr, i32, ptr, ptr, ptr, i16, i32, ptr, ptr, i16, ptr, ptr, i32, i16, ptr, ptr, ptr, ptr, i32, i32, i16, i16, i32, ptr, i16, ptr, i32, i32, i32, i32, i32, i32, ptr, i16, ptr, ptr, i32, i16, ptr, i32, i16, i16, ptr, ptr, ptr, i16, ptr, ptr, ptr, ptr, i16, i16, ptr, i16, ptr, i16, ptr, i16, ptr, i16, ptr, ptr, ptr, ptr, i16, ptr, ptr, ptr, i32, ptr, i32, ptr, ptr, i16, ptr, ptr, i32, i16, ptr, ptr, i16, i16, ptr, i16, ptr, ptr, ptr, i32, ptr, i16, i16, ptr, ptr, ptr, ptr, ptr, ptr, ptr, ptr, i16, i32, i16, ptr, ptr, ptr, ptr, i32, ptr, ptr, ptr, i16, ptr, ptr, ptr, i16, ptr, i16, ptr, i16, i16, ptr }

@.str = private unnamed_addr constant [42 x i8] c"slurm_signal_container would kill caller!\00", align 1
@slurm_conf = external global %struct.slurm_conf_t, align 8
@.str.1 = private unnamed_addr constant [72 x i8] c"Unable to destroy container %lu in pgid plugin, giving up after %lu sec\00", align 1

; Function Attrs: nounwind uwtable
define dso_local i32 @proctrack_p_signal(i64 noundef %0, i32 noundef %1) #0 {
  %3 = alloca i32, align 4
  %4 = alloca i64, align 8
  %5 = alloca i32, align 4
  %6 = alloca i32, align 4
  %7 = alloca i32, align 4
  store i64 %0, ptr %4, align 8
  store i32 %1, ptr %5, align 4
  call void @llvm.lifetime.start.p0(i64 4, ptr %6) #5
  %8 = load i64, ptr %4, align 8
  %9 = trunc i64 %8 to i32
  store i32 %9, ptr %6, align 4
  %10 = load i64, ptr %4, align 8
  %11 = icmp ne i64 %10, 0
  br i1 %11, label %13, label %12

12:                                               ; preds = %2
  br label %28

13:                                               ; preds = %2
  %14 = load i32, ptr %6, align 4
  %15 = call i32 @getpid() #5
  %16 = icmp eq i32 %14, %15
  br i1 %16, label %21, label %17

17:                                               ; preds = %13
  %18 = load i32, ptr %6, align 4
  %19 = call i32 @getpgid(i32 noundef 0) #5
  %20 = icmp eq i32 %18, %19
  br i1 %20, label %21, label %23

21:                                               ; preds = %17, %13
  %22 = call i32 (ptr, ...) @error(ptr noundef @.str)
  br label %27

23:                                               ; preds = %17
  %24 = load i32, ptr %6, align 4
  %25 = load i32, ptr %5, align 4
  %26 = call i32 @killpg(i32 noundef %24, i32 noundef %25) #5
  store i32 %26, ptr %3, align 4
  store i32 1, ptr %7, align 4
  br label %30

27:                                               ; preds = %21
  br label %28

28:                                               ; preds = %27, %12
  %29 = call ptr @__errno_location() #6
  store i32 3, ptr %29, align 4
  store i32 -1, ptr %3, align 4
  store i32 1, ptr %7, align 4
  br label %30

30:                                               ; preds = %28, %23
  call void @llvm.lifetime.end.p0(i64 4, ptr %6) #5
  %31 = load i32, ptr %3, align 4
  ret i32 %31
}

; Function Attrs: nounwind uwtable
define dso_local i32 @proctrack_p_wait(i64 noundef %0) #0 {
  %2 = alloca i32, align 4
  %3 = alloca i64, align 8
  %4 = alloca i32, align 4
  %5 = alloca i32, align 4
  %6 = alloca i64, align 8
  %7 = alloca i32, align 4
  %8 = alloca i64, align 8
  store i64 %0, ptr %3, align 8
  call void @llvm.lifetime.start.p0(i64 4, ptr %4) #5
  %9 = load i64, ptr %3, align 8
  %10 = trunc i64 %9 to i32
  store i32 %10, ptr %4, align 4
  call void @llvm.lifetime.start.p0(i64 4, ptr %5) #5
  store i32 1, ptr %5, align 4
  call void @llvm.lifetime.start.p0(i64 8, ptr %6) #5
  %11 = call i64 @time(ptr noundef null) #5
  store i64 %11, ptr %6, align 8
  %12 = load i64, ptr %3, align 8
  %13 = icmp eq i64 %12, 0
  br i1 %13, label %17, label %14

14:                                               ; preds = %1
  %15 = load i64, ptr %3, align 8
  %16 = icmp eq i64 %15, 1
  br i1 %16, label %17, label %19

17:                                               ; preds = %14, %1
  %18 = call ptr @__errno_location() #6
  store i32 22, ptr %18, align 4
  store i32 -1, ptr %2, align 4
  store i32 1, ptr %7, align 4
  br label %53

19:                                               ; preds = %14
  br label %20

20:                                               ; preds = %51, %19
  %21 = load i32, ptr %4, align 4
  %22 = call i32 @killpg(i32 noundef %21, i32 noundef 0) #5
  %23 = icmp eq i32 %22, 0
  br i1 %23, label %24, label %52

24:                                               ; preds = %20
  call void @llvm.lifetime.start.p0(i64 8, ptr %8) #5
  %25 = call i64 @time(ptr noundef null) #5
  store i64 %25, ptr %8, align 8
  %26 = load i64, ptr %8, align 8
  %27 = load i64, ptr %6, align 8
  %28 = load i16, ptr getelementptr inbounds nuw (%struct.slurm_conf_t, ptr @slurm_conf, i32 0, i32 221), align 8
  %29 = zext i16 %28 to i64
  %30 = add nsw i64 %27, %29
  %31 = icmp sgt i64 %26, %30
  br i1 %31, label %32, label %38

32:                                               ; preds = %24
  %33 = load i64, ptr %3, align 8
  %34 = load i64, ptr %8, align 8
  %35 = load i64, ptr %6, align 8
  %36 = sub nsw i64 %34, %35
  %37 = call i32 (ptr, ...) @error(ptr noundef @.str.1, i64 noundef %33, i64 noundef %36)
  store i32 3, ptr %7, align 4
  br label %49

38:                                               ; preds = %24
  %39 = load i64, ptr %3, align 8
  %40 = call i32 @proctrack_p_signal(i64 noundef %39, i32 noundef 9)
  %41 = load i32, ptr %5, align 4
  %42 = call i32 @sleep(i32 noundef %41)
  %43 = load i32, ptr %5, align 4
  %44 = icmp slt i32 %43, 32
  br i1 %44, label %45, label %48

45:                                               ; preds = %38
  %46 = load i32, ptr %5, align 4
  %47 = mul nsw i32 %46, 2
  store i32 %47, ptr %5, align 4
  br label %48

48:                                               ; preds = %45, %38
  store i32 0, ptr %7, align 4
  br label %49

49:                                               ; preds = %48, %32
  call void @llvm.lifetime.end.p0(i64 8, ptr %8) #5
  %50 = load i32, ptr %7, align 4
  switch i32 %50, label %55 [
    i32 0, label %51
    i32 3, label %52
  ]

51:                                               ; preds = %49
  br label %20, !llvm.loop !8

52:                                               ; preds = %49, %20
  store i32 0, ptr %2, align 4
  store i32 1, ptr %7, align 4
  br label %53

53:                                               ; preds = %52, %17
  call void @llvm.lifetime.end.p0(i64 8, ptr %6) #5
  call void @llvm.lifetime.end.p0(i64 4, ptr %5) #5
  call void @llvm.lifetime.end.p0(i64 4, ptr %4) #5
  %54 = load i32, ptr %2, align 4
  ret i32 %54

55:                                               ; preds = %49
  unreachable
}