; Function Attrs: nounwind uwtable
define dso_local range(i32 -1, 1) i32 @proctrack_p_wait(i64 noundef %0) local_unnamed_addr #2 {
  %2 = trunc i64 %0 to i32
  %3 = tail call i64 @time(ptr noundef null) #10
  %or.cond = icmp ult i64 %0, 2
  br i1 %or.cond, label %6, label %.preheader

.preheader:                                       ; preds = %1
  %4 = tail call i32 @killpg(i32 noundef %2, i32 noundef 0) #10
  %5 = icmp eq i32 %4, 0
  br i1 %5, label %.lr.ph, label %.loopexit

6:                                                ; preds = %1
  %7 = tail call ptr @__errno_location() #11
  store i32 22, ptr %7, align 4
  br label %.loopexit

.lr.ph:                                           ; preds = %.preheader, %26
  %.01722 = phi i32 [ %spec.select, %26 ], [ 1, %.preheader ]
  %8 = tail call i64 @time(ptr noundef null) #10
  %9 = load i16, ptr getelementptr inbounds nuw (i8, ptr @slurm_conf, i64 1504), align 8
  %10 = zext i16 %9 to i64
  %11 = add nsw i64 %3, %10
  %12 = icmp sgt i64 %8, %11
  br i1 %12, label %.thread, label %15

.thread:                                          ; preds = %.lr.ph
  %13 = sub nsw i64 %8, %3
  %14 = tail call i32 (ptr, ...) @error(ptr noundef nonnull @.str.1, i64 noundef %0, i64 noundef %13) #10
  br label %.loopexit

15:                                               ; preds = %.lr.ph
  %16 = tail call i32 @getpid() #10
  %17 = icmp eq i32 %16, %2
  br i1 %17, label %23, label %18

18:                                               ; preds = %15
  %19 = tail call i32 @getpgid(i32 noundef 0) #10
  %20 = icmp eq i32 %19, %2
  br i1 %20, label %23, label %21

21:                                               ; preds = %18
  %22 = tail call i32 @killpg(i32 noundef %2, i32 noundef 9) #10
  br label %26

23:                                               ; preds = %15, %18
  %24 = tail call i32 (ptr, ...) @error(ptr noundef nonnull @.str) #10
  %25 = tail call ptr @__errno_location() #11
  store i32 3, ptr %25, align 4
  br label %26

26:                                               ; preds = %23, %21
  %27 = tail call i32 @sleep(i32 noundef %.01722) #10
  %28 = icmp slt i32 %.01722, 32
  %29 = zext i1 %28 to i32
  %spec.select = shl nsw i32 %.01722, %29
  %30 = tail call i32 @killpg(i32 noundef %2, i32 noundef 0) #10
  %31 = icmp eq i32 %30, 0
  br i1 %31, label %.lr.ph, label %.loopexit

.loopexit:                                        ; preds = %26, %.preheader, %.thread, %6
  %.0 = phi i32 [ -1, %6 ], [ 0, %.thread ], [ 0, %.preheader ], [ 0, %26 ]
  ret i32 %.0
}